target datalayout = "e-m:e-p270:32:32-p271:32:32-p272:64:64-i64:64-i128:128-f80:128-n8:16:32:64-S128"
target triple = "x86_64-pc-linux-gnu"

%struct.client = type { i64, i64, ptr, i8, i8, i8, i8, i32, ptr, ptr, ptr, ptr, ptr, i64, i64, i32, ptr, i32, i32, ptr, i64, ptr, ptr, ptr, ptr, ptr, i32, i32, i64, ptr, i64, ptr, i64, i64, i64, i32, ptr, i64, i64, i32, i32, i32, i32, i64, i64, ptr, i64, i64, i64, i64, i64, i64, i64, i64, [41 x i8], i32, ptr, i32, i32, i64, %struct.multiState, %struct.blockingState, i64, ptr, ptr, ptr, ptr, ptr, ptr, ptr, ptr, ptr, ptr, ptr, ptr, ptr, ptr, i64, ptr, i64, i32, ptr, ptr, ptr, i64, %struct.listNode, i64, i64, i32, i64, ptr }
%struct.multiState = type { ptr, i32, i32, i32, i64, i32 }
%struct.blockingState = type { i32, i64, i32, ptr, i32, i32, i64, ptr, ptr, i64 }
%struct.listNode = type { ptr, ptr, ptr }
%struct.listIter = type { ptr, i32 }
%struct.watchedKey = type { %struct.listNode, ptr, ptr, ptr, i8 }
%struct.redisDb = type { ptr, ptr, ptr, ptr, ptr, ptr, ptr, i32, i64, i64, ptr }
%struct.dict = type { ptr, [2 x ptr], [2 x i64], i64, i16, [2 x i8], i16, [0 x ptr] }
%struct.redisObject = type { i32, i32, ptr }

; Function Attrs: nounwind uwtable
define dso_local void @touchAllWatchedKeysInDb(ptr noundef %0, ptr noundef %1) #0 {
  %3 = alloca ptr, align 8
  %4 = alloca ptr, align 8
  %5 = alloca %struct.listIter, align 8
  %6 = alloca ptr, align 8
  %7 = alloca ptr, align 8
  %8 = alloca i32, align 4
  %9 = alloca ptr, align 8
  %10 = alloca ptr, align 8
  %11 = alloca i32, align 4
  %12 = alloca ptr, align 8
  %13 = alloca ptr, align 8
  %14 = alloca ptr, align 8
  store ptr %0, ptr %3, align 8, !tbaa !106
  store ptr %1, ptr %4, align 8, !tbaa !106
  call void @llvm.lifetime.start.p0(i64 16, ptr %5) #8
  call void @llvm.lifetime.start.p0(i64 8, ptr %6) #8
  call void @llvm.lifetime.start.p0(i64 8, ptr %7) #8
  %15 = load ptr, ptr %3, align 8, !tbaa !106
  %16 = getelementptr inbounds nuw %struct.redisDb, ptr %15, i32 0, i32 6
  %17 = load ptr, ptr %16, align 8, !tbaa !63
  %18 = getelementptr inbounds nuw %struct.dict, ptr %17, i32 0, i32 2
  %19 = getelementptr inbounds [2 x i64], ptr %18, i64 0, i64 0
  %20 = load i64, ptr %19, align 8, !tbaa !44
  %21 = load ptr, ptr %3, align 8, !tbaa !106
  %22 = getelementptr inbounds nuw %struct.redisDb, ptr %21, i32 0, i32 6
  %23 = load ptr, ptr %22, align 8, !tbaa !63
  %24 = getelementptr inbounds nuw %struct.dict, ptr %23, i32 0, i32 2
  %25 = getelementptr inbounds [2 x i64], ptr %24, i64 0, i64 1
  %26 = load i64, ptr %25, align 8, !tbaa !44
  %27 = add i64 %20, %26
  %28 = icmp eq i64 %27, 0
  br i1 %28, label %29, label %30

29:                                               ; preds = %2
  store i32 1, ptr %8, align 4
  br label %141

30:                                               ; preds = %2
  call void @llvm.lifetime.start.p0(i64 8, ptr %9) #8
  %31 = load ptr, ptr %3, align 8, !tbaa !106
  %32 = getelementptr inbounds nuw %struct.redisDb, ptr %31, i32 0, i32 6
  %33 = load ptr, ptr %32, align 8, !tbaa !63
  %34 = call ptr @dictGetSafeIterator(ptr noundef %33)
  store ptr %34, ptr %9, align 8, !tbaa !110
  br label %35

35:                                               ; preds = %138, %136, %30
  %36 = load ptr, ptr %9, align 8, !tbaa !110
  %37 = call ptr @dictNext(ptr noundef %36)
  store ptr %37, ptr %7, align 8, !tbaa !112
  %38 = icmp ne ptr %37, null
  br i1 %38, label %39, label %139

39:                                               ; preds = %35
  call void @llvm.lifetime.start.p0(i64 8, ptr %10) #8
  %40 = load ptr, ptr %7, align 8, !tbaa !112
  %41 = call ptr @dictGetKey(ptr noundef %40)
  store ptr %41, ptr %10, align 8, !tbaa !40
  call void @llvm.lifetime.start.p0(i64 4, ptr %11) #8
  %42 = load ptr, ptr %3, align 8, !tbaa !106
  %43 = load ptr, ptr %10, align 8, !tbaa !40
  %44 = getelementptr inbounds nuw %struct.redisObject, ptr %43, i32 0, i32 2
  %45 = load ptr, ptr %44, align 8, !tbaa !107
  %46 = call ptr @dbFind(ptr noundef %42, ptr noundef %45)
  %47 = icmp ne ptr %46, null
  %48 = zext i1 %47 to i32
  store i32 %48, ptr %11, align 4, !tbaa !35
  %49 = load i32, ptr %11, align 4, !tbaa !35
  %50 = icmp ne i32 %49, 0
  br i1 %50, label %61, label %51

51:                                               ; preds = %39
  %52 = load ptr, ptr %4, align 8, !tbaa !106
  %53 = icmp ne ptr %52, null
  br i1 %53, label %54, label %135

54:                                               ; preds = %51
  %55 = load ptr, ptr %4, align 8, !tbaa !106
  %56 = load ptr, ptr %10, align 8, !tbaa !40
  %57 = getelementptr inbounds nuw %struct.redisObject, ptr %56, i32 0, i32 2
  %58 = load ptr, ptr %57, align 8, !tbaa !107
  %59 = call ptr @dbFind(ptr noundef %55, ptr noundef %58)
  %60 = icmp ne ptr %59, null
  br i1 %60, label %61, label %135

61:                                               ; preds = %54, %39
  call void @llvm.lifetime.start.p0(i64 8, ptr %12) #8
  %62 = load ptr, ptr %7, align 8, !tbaa !112
  %63 = call ptr @dictGetVal(ptr noundef %62)
  store ptr %63, ptr %12, align 8, !tbaa !60
  %64 = load ptr, ptr %12, align 8, !tbaa !60
  %65 = icmp ne ptr %64, null
  br i1 %65, label %67, label %66

66:                                               ; preds = %61
  store i32 2, ptr %8, align 4
  br label %132, !llvm.loop !113

67:                                               ; preds = %61
  %68 = load ptr, ptr %12, align 8, !tbaa !60
  call void @listRewind(ptr noundef %68, ptr noundef %5)
  br label %69

69:                                               ; preds = %130, %128, %67
  %70 = call ptr @listNext(ptr noundef %5)
  store ptr %70, ptr %6, align 8, !tbaa !56
  %71 = icmp ne ptr %70, null
  br i1 %71, label %72, label %131

72:                                               ; preds = %69
  call void @llvm.lifetime.start.p0(i64 8, ptr %13) #8
  %73 = load ptr, ptr %6, align 8, !tbaa !56
  %74 = getelementptr inbounds i8, ptr %73, i64 0
  store ptr %74, ptr %13, align 8, !tbaa !58
  %75 = load ptr, ptr %13, align 8, !tbaa !58
  %76 = getelementptr inbounds nuw %struct.watchedKey, ptr %75, i32 0, i32 4
  %77 = load i8, ptr %76, align 8
  %78 = and i8 %77, 1
  %79 = zext i8 %78 to i32
  %80 = icmp ne i32 %79, 0
  br i1 %80, label %81, label %105

81:                                               ; preds = %72
  %82 = load ptr, ptr %4, align 8, !tbaa !106
  %83 = icmp ne ptr %82, null
  br i1 %83, label %84, label %91

84:                                               ; preds = %81
  %85 = load ptr, ptr %4, align 8, !tbaa !106
  %86 = load ptr, ptr %10, align 8, !tbaa !40
  %87 = getelementptr inbounds nuw %struct.redisObject, ptr %86, i32 0, i32 2
  %88 = load ptr, ptr %87, align 8, !tbaa !107
  %89 = call ptr @dbFind(ptr noundef %85, ptr noundef %88)
  %90 = icmp ne ptr %89, null
  br i1 %90, label %97, label %91

91:                                               ; preds = %84, %81
  %92 = load ptr, ptr %13, align 8, !tbaa !58
  %93 = getelementptr inbounds nuw %struct.watchedKey, ptr %92, i32 0, i32 4
  %94 = load i8, ptr %93, align 8
  %95 = and i8 %94, -2
  %96 = or i8 %95, 0
  store i8 %96, ptr %93, align 8
  store i32 4, ptr %8, align 4
  br label %128, !llvm.loop !114

97:                                               ; preds = %84
  %98 = load ptr, ptr %4, align 8, !tbaa !106
  %99 = load ptr, ptr %10, align 8, !tbaa !40
  %100 = call i32 @keyIsExpired(ptr noundef %98, ptr noundef %99)
  %101 = icmp ne i32 %100, 0
  br i1 %101, label %102, label %103

102:                                              ; preds = %97
  store i32 4, ptr %8, align 4
  br label %128, !llvm.loop !114

103:                                              ; preds = %97
  br label %104

104:                                              ; preds = %103
  br label %120

105:                                              ; preds = %72
  %106 = load i32, ptr %11, align 4, !tbaa !35
  %107 = icmp ne i32 %106, 0
  br i1 %107, label %119, label %108

108:                                              ; preds = %105
  %109 = load ptr, ptr %4, align 8, !tbaa !106
  %110 = load ptr, ptr %10, align 8, !tbaa !40
  %111 = call i32 @keyIsExpired(ptr noundef %109, ptr noundef %110)
  %112 = icmp ne i32 %111, 0
  br i1 %112, label %113, label %119

113:                                              ; preds = %108
  %114 = load ptr, ptr %13, align 8, !tbaa !58
  %115 = getelementptr inbounds nuw %struct.watchedKey, ptr %114, i32 0, i32 4
  %116 = load i8, ptr %115, align 8
  %117 = and i8 %116, -2
  %118 = or i8 %117, 1
  store i8 %118, ptr %115, align 8
  store i32 4, ptr %8, align 4
  br label %128, !llvm.loop !114

119:                                              ; preds = %108, %105
  br label %120

120:                                              ; preds = %119, %104
  call void @llvm.lifetime.start.p0(i64 8, ptr %14) #8
  %121 = load ptr, ptr %13, align 8, !tbaa !58
  %122 = getelementptr inbounds nuw %struct.watchedKey, ptr %121, i32 0, i32 3
  %123 = load ptr, ptr %122, align 8, !tbaa !104
  store ptr %123, ptr %14, align 8, !tbaa !5
  %124 = load ptr, ptr %14, align 8, !tbaa !5
  %125 = getelementptr inbounds nuw %struct.client, ptr %124, i32 0, i32 1
  %126 = load i64, ptr %125, align 8, !tbaa !45
  %127 = or i64 %126, 32
  store i64 %127, ptr %125, align 8, !tbaa !45
  call void @llvm.lifetime.end.p0(i64 8, ptr %14) #8
  store i32 0, ptr %8, align 4
  br label %128

128:                                              ; preds = %120, %113, %102, %91
  call void @llvm.lifetime.end.p0(i64 8, ptr %13) #8
  %129 = load i32, ptr %8, align 4
  switch i32 %129, label %144 [
    i32 0, label %130
    i32 4, label %69
  ]

130:                                              ; preds = %128
  br label %69, !llvm.loop !114

131:                                              ; preds = %69
  store i32 0, ptr %8, align 4
  br label %132

132:                                              ; preds = %131, %66
  call void @llvm.lifetime.end.p0(i64 8, ptr %12) #8
  %133 = load i32, ptr %8, align 4
  switch i32 %133, label %136 [
    i32 0, label %134
  ]

134:                                              ; preds = %132
  br label %135

135:                                              ; preds = %134, %54, %51
  store i32 0, ptr %8, align 4
  br label %136

136:                                              ; preds = %135, %132
  call void @llvm.lifetime.end.p0(i64 4, ptr %11) #8
  call void @llvm.lifetime.end.p0(i64 8, ptr %10) #8
  %137 = load i32, ptr %8, align 4
  switch i32 %137, label %144 [
    i32 0, label %138
    i32 2, label %35
  ]

138:                                              ; preds = %136
  br label %35, !llvm.loop !113

139:                                              ; preds = %35
  %140 = load ptr, ptr %9, align 8, !tbaa !110
  call void @dictReleaseIterator(ptr noundef %140)
  call void @llvm.lifetime.end.p0(i64 8, ptr %9) #8
  store i32 0, ptr %8, align 4
  br label %141

141:                                              ; preds = %139, %29
  call void @llvm.lifetime.end.p0(i64 8, ptr %7) #8
  call void @llvm.lifetime.end.p0(i64 8, ptr %6) #8
  call void @llvm.lifetime.end.p0(i64 16, ptr %5) #8
  %142 = load i32, ptr %8, align 4
  switch i32 %142, label %144 [
    i32 0, label %143
    i32 1, label %143
  ]

143:                                              ; preds = %141, %141
  ret void

144:                                              ; preds = %141, %136, %128
  unreachable
}