; Function Attrs: nounwind uwtable
define dso_local void @touchAllWatchedKeysInDb(ptr noundef %0, ptr noundef %1) local_unnamed_addr #1 {
  %3 = alloca %struct.listIter, align 8
  call void @llvm.lifetime.start.p0(i64 16, ptr nonnull %3) #10
  %4 = getelementptr inbounds nuw i8, ptr %0, i64 48
  %5 = load ptr, ptr %4, align 8, !tbaa !57
  %6 = getelementptr inbounds nuw i8, ptr %5, i64 24
  %7 = load i64, ptr %6, align 8, !tbaa !98
  %8 = getelementptr inbounds nuw i8, ptr %5, i64 32
  %9 = load i64, ptr %8, align 8, !tbaa !98
  %10 = sub i64 0, %9
  %11 = icmp eq i64 %7, %10
  br i1 %11, label %78, label %12

12:                                               ; preds = %2
  %13 = tail call ptr @dictGetSafeIterator(ptr noundef nonnull %5) #10
  %14 = tail call ptr @dictNext(ptr noundef %13) #10
  %.not44 = icmp eq ptr %14, null
  br i1 %.not44, label %._crit_edge, label %.lr.ph45

.lr.ph45:                                         ; preds = %12
  %.not34 = icmp eq ptr %1, null
  br i1 %.not34, label %.lr.ph45.split.us, label %.lr.ph45.split

.lr.ph45.split.us:                                ; preds = %.lr.ph45, %.critedge.us
  %15 = phi ptr [ %24, %.critedge.us ], [ %14, %.lr.ph45 ]
  %16 = call ptr @dictGetKey(ptr noundef nonnull %15) #10
  %17 = getelementptr inbounds nuw i8, ptr %16, i64 8
  %18 = load ptr, ptr %17, align 8, !tbaa !99
  %19 = call ptr @dbFind(ptr noundef %0, ptr noundef %18) #10
  %.not33.us = icmp eq ptr %19, null
  br i1 %.not33.us, label %.critedge.us, label %20

20:                                               ; preds = %.lr.ph45.split.us
  %21 = call ptr @dictGetVal(ptr noundef nonnull %15) #10
  %.not36.not.us = icmp eq ptr %21, null
  br i1 %.not36.not.us, label %.critedge.us, label %22, !llvm.loop !102

22:                                               ; preds = %20
  call void @listRewind(ptr noundef nonnull %21, ptr noundef nonnull %3) #10
  %23 = call ptr @listNext(ptr noundef nonnull %3) #10
  %.not3743.us = icmp eq ptr %23, null
  br i1 %.not3743.us, label %.critedge.us, label %.lr.ph.split.us.split.us49

.critedge.us:                                     ; preds = %37, %.lr.ph45.split.us, %22, %20
  %24 = call ptr @dictNext(ptr noundef %13) #10
  %.not.us = icmp eq ptr %24, null
  br i1 %.not.us, label %._crit_edge, label %.lr.ph45.split.us

.lr.ph.split.us.split.us49:                       ; preds = %22, %37
  %25 = phi ptr [ %38, %37 ], [ %23, %22 ]
  %26 = getelementptr inbounds nuw i8, ptr %25, i64 48
  %27 = load i8, ptr %26, align 8
  %28 = and i8 %27, 1
  %.not38.us.us46 = icmp eq i8 %28, 0
  br i1 %.not38.us.us46, label %31, label %29

29:                                               ; preds = %.lr.ph.split.us.split.us49
  %30 = and i8 %27, -2
  store i8 %30, ptr %26, align 8
  br label %37, !llvm.loop !103

31:                                               ; preds = %.lr.ph.split.us.split.us49
  %32 = getelementptr inbounds nuw i8, ptr %25, i64 40
  %33 = load ptr, ptr %32, align 8, !tbaa !97
  %34 = getelementptr inbounds nuw i8, ptr %33, i64 8
  %35 = load i64, ptr %34, align 8, !tbaa !38
  %36 = or i64 %35, 32
  store i64 %36, ptr %34, align 8, !tbaa !38
  br label %37

37:                                               ; preds = %31, %29
  %38 = call ptr @listNext(ptr noundef nonnull %3) #10
  %.not37.us.us47 = icmp eq ptr %38, null
  br i1 %.not37.us.us47, label %.critedge.us, label %.lr.ph.split.us.split.us49

.lr.ph45.split:                                   ; preds = %.lr.ph45, %.critedge
  %39 = phi ptr [ %77, %.critedge ], [ %14, %.lr.ph45 ]
  %40 = call ptr @dictGetKey(ptr noundef nonnull %39) #10
  %41 = getelementptr inbounds nuw i8, ptr %40, i64 8
  %42 = load ptr, ptr %41, align 8, !tbaa !99
  %43 = call ptr @dbFind(ptr noundef %0, ptr noundef %42) #10
  %.not33 = icmp eq ptr %43, null
  br i1 %.not33, label %44, label %47

44:                                               ; preds = %.lr.ph45.split
  %45 = load ptr, ptr %41, align 8, !tbaa !99
  %46 = call ptr @dbFind(ptr noundef nonnull %1, ptr noundef %45) #10
  %.not35 = icmp eq ptr %46, null
  br i1 %.not35, label %.critedge, label %47

47:                                               ; preds = %44, %.lr.ph45.split
  %48 = call ptr @dictGetVal(ptr noundef nonnull %39) #10
  %.not36.not = icmp eq ptr %48, null
  br i1 %.not36.not, label %.critedge, label %49, !llvm.loop !102

49:                                               ; preds = %47
  call void @listRewind(ptr noundef nonnull %48, ptr noundef nonnull %3) #10
  %50 = call ptr @listNext(ptr noundef nonnull %3) #10
  %.not3743 = icmp eq ptr %50, null
  br i1 %.not3743, label %.critedge, label %.lr.ph

.lr.ph:                                           ; preds = %49, %75
  %51 = phi ptr [ %76, %75 ], [ %50, %49 ]
  %52 = getelementptr inbounds nuw i8, ptr %51, i64 48
  %53 = load i8, ptr %52, align 8
  %54 = and i8 %53, 1
  %.not38 = icmp eq i8 %54, 0
  br i1 %.not38, label %63, label %55

55:                                               ; preds = %.lr.ph
  %56 = load ptr, ptr %41, align 8, !tbaa !99
  %57 = call ptr @dbFind(ptr noundef nonnull %1, ptr noundef %56) #10
  %.not41 = icmp eq ptr %57, null
  br i1 %.not41, label %58, label %61

58:                                               ; preds = %55
  %59 = load i8, ptr %52, align 8
  %60 = and i8 %59, -2
  store i8 %60, ptr %52, align 8
  br label %75, !llvm.loop !103

61:                                               ; preds = %55
  %62 = call i32 @keyIsExpired(ptr noundef nonnull %1, ptr noundef nonnull %40) #10
  %.not42 = icmp eq i32 %62, 0
  br i1 %.not42, label %69, label %75, !llvm.loop !103

63:                                               ; preds = %.lr.ph
  br i1 %.not33, label %64, label %69

64:                                               ; preds = %63
  %65 = call i32 @keyIsExpired(ptr noundef nonnull %1, ptr noundef %40) #10
  %.not39 = icmp eq i32 %65, 0
  br i1 %.not39, label %69, label %66

66:                                               ; preds = %64
  %67 = load i8, ptr %52, align 8
  %68 = or i8 %67, 1
  store i8 %68, ptr %52, align 8
  br label %75, !llvm.loop !103

69:                                               ; preds = %63, %64, %61
  %70 = getelementptr inbounds nuw i8, ptr %51, i64 40
  %71 = load ptr, ptr %70, align 8, !tbaa !97
  %72 = getelementptr inbounds nuw i8, ptr %71, i64 8
  %73 = load i64, ptr %72, align 8, !tbaa !38
  %74 = or i64 %73, 32
  store i64 %74, ptr %72, align 8, !tbaa !38
  br label %75

75:                                               ; preds = %61, %69, %66, %58
  %76 = call ptr @listNext(ptr noundef nonnull %3) #10
  %.not37 = icmp eq ptr %76, null
  br i1 %.not37, label %.critedge, label %.lr.ph

.critedge:                                        ; preds = %75, %49, %47, %44
  %77 = call ptr @dictNext(ptr noundef %13) #10
  %.not = icmp eq ptr %77, null
  br i1 %.not, label %._crit_edge, label %.lr.ph45.split

._crit_edge:                                      ; preds = %.critedge, %.critedge.us, %12
  call void @dictReleaseIterator(ptr noundef %13) #10
  br label %78

78:                                               ; preds = %2, %._crit_edge
  call void @llvm.lifetime.end.p0(i64 16, ptr nonnull %3) #10
  ret void
}